; Function Attrs: mustprogress nounwind uwtable
define hidden noalias noundef nonnull ptr @_ZN8nanobind6detail12strdup_checkEPKc(ptr noundef readonly captures(none) %0) local_unnamed_addr #5 {
  %2 = tail call noalias ptr @strdup(ptr noundef %0) #25
  %.not = icmp eq ptr %2, null
  br i1 %.not, label %3, label %4

3:                                                ; preds = %1
  tail call void (ptr, ...) @_ZN8nanobind6detail4failEPKcz(ptr noundef nonnull @.str.1) #26
  unreachable

4:                                                ; preds = %1
  ret ptr %2
}